; Function Attrs: mustprogress uwtable
define void @_ZN2cv9SparseMat3Hdr5clearEv(ptr noundef nonnull align 8 dereferenceable(216) %0) local_unnamed_addr #0 align 2 personality ptr @__gxx_personality_v0 {
  %2 = getelementptr inbounds nuw i8, ptr %0, i64 64
  %3 = load ptr, ptr %2, align 8, !tbaa !26
  %4 = getelementptr inbounds nuw i8, ptr %0, i64 72
  %5 = load ptr, ptr %4, align 8, !tbaa !27
  %.not.i.i = icmp eq ptr %5, %3
  br i1 %.not.i.i, label %_ZNSt6vectorImSaImEE6resizeEm.exit, label %6

6:                                                ; preds = %1
  store ptr %3, ptr %4, align 8, !tbaa !27
  br label %_ZNSt6vectorImSaImEE6resizeEm.exit

_ZNSt6vectorImSaImEE6resizeEm.exit:               ; preds = %1, %6
  tail call void @_ZNSt6vectorImSaImEE17_M_default_appendEm(ptr noundef nonnull align 8 dereferenceable(24) %2, i64 noundef 8)
  %7 = getelementptr inbounds nuw i8, ptr %0, i64 40
  %8 = load ptr, ptr %7, align 8, !tbaa !29
  %9 = getelementptr inbounds nuw i8, ptr %0, i64 48
  %10 = load ptr, ptr %9, align 8, !tbaa !30
  %.not.i.i2 = icmp eq ptr %10, %8
  br i1 %.not.i.i2, label %_ZNSt6vectorIhSaIhEE5clearEv.exit, label %11

11:                                               ; preds = %_ZNSt6vectorImSaImEE6resizeEm.exit
  store ptr %8, ptr %9, align 8, !tbaa !30
  br label %_ZNSt6vectorIhSaIhEE5clearEv.exit

_ZNSt6vectorIhSaIhEE5clearEv.exit:                ; preds = %_ZNSt6vectorImSaImEE6resizeEm.exit, %11
  %12 = getelementptr inbounds nuw i8, ptr %0, i64 16
  %13 = load i64, ptr %12, align 8, !tbaa !22
  tail call void @_ZNSt6vectorIhSaIhEE6resizeEm(ptr noundef nonnull align 8 dereferenceable(24) %7, i64 noundef %13)
  %14 = getelementptr inbounds nuw i8, ptr %0, i64 24
  tail call void @llvm.memset.p0.i64(ptr noundef nonnull align 8 dereferenceable(16) %14, i8 0, i64 16, i1 false)
  ret void
}